((dp1
S'87e0b9'
p2
(dp3
sS'88f6a2'
p4
g3
sS'7cdc9d'
p5
g3
sS'0adb48'
p6
g3
sS'9ff6ab'
p7
g3
sS'd06986'
p8
g3
sS'7bdefc'
p9
g3
sS'32de1a'
p10
g3
sS'cb6ad5'
p11
g3
sS'60e2c3'
p12
g3
sS'fdefee'
p13
g3
sS'bffd6c'
p14
g3
sS'2a7d55'
p15
g3
sS'12cb8c'
p16
g3
sS'e46bb1'
p17
g3
sS'69d73c'
p18
g3
sS'a91ffe'
p19
g3
sS'aea6e2'
p20
g3
sS'0ccee3'
p21
g3
sS'dbecd3'
p22
g3
sS'bbd4fb'
p23
g3
sS'88f12d'
p24
g3
sS'0af9ed'
p25
g3
sS'5a115b'
p26
g3
sS'631ec6'
p27
g3
sS'd4cf1e'
p28
g3
sS'4d4a03'
p29
g3
sS'afcbe8'
p30
g3
sS'b20a8b'
p31
g3
sS'b2a2bc'
p32
g3
sS'5c942a'
p33
g3
sS'cee466'
p34
g3
sS'f1ebbf'
p35
g3
sS'1acced'
p36
g3
sS'857fe0'
p37
g3
sS'de0feb'
p38
g3
sS'1b509e'
p39
g3
sS'da0de1'
p40
g3
sS'70eff0'
p41
g3
sS'692c0a'
p42
g3
sS'e1d86d'
p43
g3
sS'8f63ad'
p44
g3
sS'b0cc2f'
p45
g3
sS'c358ec'
p46
g3
sS'5921fe'
p47
g3
sS'4f0a19'
p48
g3
sS'c4241d'
p49
g3
sS'ed8fdd'
p50
g3
sS'eead50'
p51
g3
sS'dae966'
p52
g3
sS'baedcd'
p53
g3
sS'5e7aa9'
p54
g3
sS'69da28'
p55
g3
sS'ed30fb'
p56
g3
sS'73b61b'
p57
g3
sS'7f0f8e'
p58
g3
sS'fecdbd'
p59
g3
sS'40aa89'
p60
g3
sS'e13cb4'
p61
g3
sS'5bc5fa'
p62
g3
sS'cad58f'
p63
g3
sS'b87de1'
p64
g3
sS'0e95c2'
p65
g3
sS'eef8cb'
p66
g3
sS'b1b4c8'
p67
g3
sS'2fcd7f'
p68
g3
sS'8d32b2'
p69
g3
sS'afcffd'
p70
g3
sS'dd9824'
p71
g3
sS'bd6fe8'
p72
g3
sS'd4bcd3'
p73
g3
sS'aa5e7b'
p74
g3
sS'de038b'
p75
g3
sS'eb3aee'
p76
g3
sS'90e01a'
p77
g3
sS'0fabf8'
p78
g3
sS'9dcc1c'
p79
g3
sS'dfaba4'
p80
g3
sS'cf9ca9'
p81
g3
sS'15a3d8'
p82
g3
sS'01b6cc'
p83
g3
sS'cfdc8d'
p84
g3
sS'7abc02'
p85
g3
sS'b588ef'
p86
g3
sS'9baeb5'
p87
g3
sS'e01456'
p88
g3
sS'b3e655'
p89
g3
sS'8fa4b4'
p90
g3
sS'0e6d2a'
p91
g3
sS'ff48d8'
p92
g3
sS'98ac1c'
p93
g3
sS'42bbb4'
p94
g3
sS'4ba606'
p95
g3
sS'19f5e1'
p96
g3
sS'e39af9'
p97
g3
sS'1b2cec'
p98
g3
sS'a5d2eb'
p99
g3
sS'0bea9a'
p100
g3
sS'c76aa9'
p101
g3
sS'cfaafb'
p102
g3
sS'8b4bce'
p103
g3
sS'5eee96'
p104
g3
sS'c251eb'
p105
g3
sS'ff8f6e'
p106
g3
sS'dbca70'
p107
g3
sS'8cd1ed'
p108
g3
sS'c69560'
p109
g3
sS'a98cd6'
p110
g3
sS'3f2e8a'
p111
g3
sS'c1be5f'
p112
g3
sS'9fd0da'
p113
g3
sS'5e4828'
p114
g3
sS'87ebcb'
p115
g3
sS'2ca65c'
p116
g3
sS'479aed'
p117
g3
sS'6c3f1c'
p118
g3
sS'126162'
p119
g3
sS'd0ed80'
p120
g3
sS'c861f6'
p121
g3
sS'1edde5'
p122
g3
sS'd5acf3'
p123
g3
sS'89eaa7'
p124
g3
sS'adf1bf'
p125
g3
sS'4b00dc'
p126
g3
sS'038fdf'
p127
g3
sS'b8f9f7'
p128
g3
sS'fe37cf'
p129
g3
sS'bcf5bf'
p130
g3
sS'ca46ef'
p131
g3
sS'a49b1d'
p132
g3
sS'c4d5de'
p133
g3
sS'f02c6b'
p134
g3
sS'2d8af8'
p135
g3
sS'c3a8db'
p136
g3
sS'a1e6f0'
p137
g3
sS'ec11d4'
p138
g3
sS'd72cd1'
p139
g3
sS'f6f7da'
p140
g3
sS'af5a9e'
p141
g3
sS'786c40'
p142
g3
sS'18dafe'
p143
g3
sS'e71b07'
p144
g3
sS'effcd8'
p145
g3
sS'02c7af'
p146
g3
sS'fffb7c'
p147
g3
sS'a9aa3b'
p148
g3
sS'9d4c3a'
p149
g3
sS'eff45c'
p150
g3
sS'3a17ec'
p151
g3
sS'5cfc35'
p152
g3
sS'0ab423'
p153
g3
sS'b5caaa'
p154
g3
sS'1cf0af'
p155
g3
sS'c84daa'
p156
g3
sS'bb4b7a'
p157
g3
sS'9eac0e'
p158
g3
sS'a2f78d'
p159
g3
sS'aad9f3'
p160
g3
sS'd6fe5f'
p161
g3
sS'71eec0'
p162
g3
sS'7c3a12'
p163
g3
sS'1b5e9d'
p164
g3
sS'b2d3db'
p165
g3
sS'aaf8bf'
p166
g3
sS'a3d6b7'
p167
g3
sS'7b527e'
p168
g3
sS'0acfe4'
p169
g3
sS'c161dc'
p170
g3
sS'7ddbdb'
p171
g3
sS'a0e943'
p172
g3
sS'2ca19a'
p173
g3
sS'abf158'
p174
g3
sS'3dbef7'
p175
g3
sS'e0b8b9'
p176
g3
sS'cf4bdb'
p177
g3
sS'47fe8d'
p178
g3
sS'deb3f1'
p179
g3
sS'3986dc'
p180
g3
sS'72a68d'
p181
g3
sS'b9abd5'
p182
g3
sS'd90467'
p183
g3
sS'999e6f'
p184
g3
sS'86e78f'
p185
g3
sS'3e9c0a'
p186
g3
sS'a58a05'
p187
g3
sS'b76acf'
p188
g3
sS'c3abeb'
p189
g3
sS'9babdd'
p190
g3
sS'2db139'
p191
g3
sS'0be9cf'
p192
g3
sS'2ecbab'
p193
g3
sS'69078d'
p194
g3
sS'bfc1e8'
p195
g3
sS'1e6556'
p196
g3
sS'b46cbf'
p197
g3
sS'8aec77'
p198
g3
sS'f2b12e'
p199
g3
sS'c2ece2'
p200
g3
sS'3cd67f'
p201
g3
sS'6d63ac'
p202
g3
sS'acb569'
p203
g3
sS'9ae0ce'
p204
g3
sS'ab0e0b'
p205
g3
sS'bc872c'
p206
g3
sS'aff6bb'
p207
g3
sS'095298'
p208
g3
sS'eadac5'
p209
g3
sS'fb3ab0'
p210
g3
sS'91517b'
p211
g3
sS'afae09'
p212
g3
sS'cd2acd'
p213
g3
sS'1bce56'
p214
g3
sS'fd30d5'
p215
g3
sS'78eda4'
p216
g3
sS'e2adac'
p217
g3
sS'1aeaa9'
p218
g3
sS'cc30c2'
p219
g3
sS'b1c8bc'
p220
g3
sS'5ee230'
p221
g3
sS'e71e3d'
p222
g3
sS'fac4f2'
p223
g3
sS'3aaa4e'
p224
g3
sS'c5d8dd'
p225
g3
sS'eef4bb'
p226
g3
sS'077aa6'
p227
g3
sS'1bc5b2'
p228
g3
sS'88ce2c'
p229
g3
sS'e64cc6'
p230
g3
sS'22cd2a'
p231
g3
sS'e1a79f'
p232
g3
sS'bff97b'
p233
g3
sS'3e67c8'
p234
g3
sS'96d7d3'
p235
g3
sS'3f5bed'
p236
g3
sS'19e7ae'
p237
g3
sS'b7ba0b'
p238
g3
sS'c1cfd2'
p239
g3
sS'fd1cab'
p240
g3
sS'c7e96b'
p241
g3
sS'4b8aa6'
p242
g3
sS'4de47c'
p243
g3
sS'1ecad8'
p244
g3
sS'ec9ce2'
p245
g3
sS'cdfa48'
p246
g3
sS'8bb792'
p247
g3
sS'ba96f3'
p248
g3
sS'dff953'
p249
g3
sS'3c03e6'
p250
g3
sS'a7a34e'
p251
g3
sS'fab23d'
p252
g3
sS'60fea1'
p253
g3
sS'b81a66'
p254
g3
sS'cd7a18'
p255
g3
sS'de0dfd'
p256
g3
sS'f1aedb'
p257
g3
sS'4bb8dd'
p258
g3
sS'2b170f'
p259
g3
sS'17cb98'
p260
g3
sS'31fbed'
p261
g3
sS'57a95d'
p262
g3
sS'c1acbb'
p263
g3
sS'cba71f'
p264
g3
sS'c276eb'
p265
g3
sS'cbcda2'
p266
g3
sS'b1fb6e'
p267
g3
sS'5077ee'
p268
g3
sS'0bce4b'
p269
g3
sS'3cfff9'
p270
g3
sS'f9ee23'
p271
g3
sS'dfafec'
p272
g3
sS'aa4fce'
p273
g3
sS'906cd6'
p274
g3
sS'fb7aef'
p275
g3
sS'0e37d4'
p276
g3
sS'abebb6'
p277
g3
sS'67ffcf'
p278
g3
sS'ff33a9'
p279
g3
sS'ac86fd'
p280
g3
sS'acaa8e'
p281
g3
sS'bcfe1d'
p282
g3
sS'dc70cd'
p283
g3
sS'dce299'
p284
g3
sS'ea3a71'
p285
g3
sS'74a5e0'
p286
g3
sS'45edab'
p287
g3
sS'1b6bd5'
p288
g3
sS'faf4a5'
p289
g3
sS'aae755'
p290
g3
sS'51aeab'
p291
g3
sS'500218'
p292
g3
sS'f5b96e'
p293
g3
sS'c2d20d'
p294
g3
sS'b672a1'
p295
g3
sS'aabbee'
p296
g3
sS'2e3945'
p297
g3
sS'fc20ec'
p298
g3
sS'd1093c'
p299
g3
sS'b1eefe'
p300
g3
sS'd257c8'
p301
g3
sS'fd9474'
p302
g3
sS'f5aed7'
p303
g3
sS'5de4fa'
p304
g3
sS'accedf'
p305
g3
sS'd9af26'
p306
g3
sS'8d923c'
p307
g3
sS'f19b3a'
p308
g3
sS'bdec19'
p309
g3
sS'd6bcb6'
p310
g3
sS'cc65b1'
p311
g3
sS'bdd927'
p312
g3
sS'97fe09'
p313
g3
sS'f1ce96'
p314
g3
sS'2b5f4f'
p315
g3
sS'b9c32c'
p316
g3
sS'c64a47'
p317
g3
sS'ab1228'
p318
g3
sS'36ad8c'
p319
g3
sS'feabda'
p320
g3
sS'ba59f7'
p321
g3
sS'52a9d0'
p322
g3
sS'37e8eb'
p323
g3
sS'8ff77a'
p324
g3
sS'96ceeb'
p325
g3
sS'cc2d1f'
p326
g3
sS'd00fea'
p327
g3
sS'570c0d'
p328
g3
sS'0dff4e'
p329
g3
sS'd2a135'
p330
g3
sS'52bac0'
p331
g3
sS'ddca20'
p332
g3
sS'6c03eb'
p333
g3
sS'31b9e1'
p334
g3
sS'662452'
p335
g3
sS'da7311'
p336
g3
sS'a4c901'
p337
g3
sS'0ded93'
p338
g3
sS'eae7f5'
p339
g3
sS'1ce2bd'
p340
g3
sS'c9ce54'
p341
g3
sS'ce371a'
p342
g3
sS'fd8acb'
p343
g3
sS'efcb3e'
p344
g3
sS'a9fedd'
p345
g3
sS'b45aae'
p346
g3
sS'cdfc8b'
p347
g3
sS'96930c'
p348
g3
sS'03ffff'
p349
g3
sS'4a8c28'
p350
g3
sS'aef492'
p351
g3
sS'd1bdab'
p352
g3
sS'fbc419'
p353
g3
sS'e66bf2'
p354
g3
sS'a094c9'
p355
g3
sS'b003bb'
p356
g3
sS'c8f68d'
p357
g3
sS'ecac8e'
p358
g3
sS'c7f4fb'
p359
g3
sS'd13d0c'
p360
g3
sS'723bd4'
p361
g3
sS'9b5ab4'
p362
g3
sS'aee6b1'
p363
g3
sS'ade31a'
p364
g3
sS'cf216a'
p365
g3
sS'96bc62'
p366
g3
sS'461bb5'
p367
g3
sS'a7ec1d'
p368
g3
sS'1fcde6'
p369
g3
sS'10f1b7'
p370
g3
sS'6de45d'
p371
g3
sS'f653be'
p372
g3
sS'c7e4eb'
p373
g3
sS'd93cd7'
p374
g3
sS'09cbc5'
p375
g3
sS'cadf2f'
p376
g3
sS'5baf35'
p377
g3
sS'dfc875'
p378
g3
sS'122c20'
p379
g3
sS'bbddbb'
p380
g3
sS'e1a5b8'
p381
g3
sS'74ccbb'
p382
g3
sS'77abc2'
p383
g3
sS'eb7b79'
p384
g3
sS'ef5aae'
p385
g3
sS'ab860b'
p386
g3
sS'abbbc7'
p387
g3
sS'8c4df8'
p388
g3
sS'841985'
p389
g3
sS'8e365b'
p390
g3
sS'ddcf12'
p391
g3
sS'1b9078'
p392
g3
sS'31ddd7'
p393
g3
sS'1a34ca'
p394
g3
sS'393bad'
p395
g3
sS'dbe0ff'
p396
g3
sS'4e461c'
p397
g3
sS'5eddda'
p398
g3
sS'795edf'
p399
g3
sS'd19d65'
p400
g3
sS'60b3bc'
p401
g3
sS'fbf101'
p402
g3
sS'a494ec'
p403
g3
sS'e7e3f2'
p404
g3
sS'd1aba9'
p405
g3
sS'678fc5'
p406
g3
sS'95694f'
p407
g3
sS'28b82f'
p408
g3
sS'3c144b'
p409
g3
sS'e64d3d'
p410
g3
sS'6d642d'
p411
g3
sS'97e8b4'
p412
g3
sS'9ae7c7'
p413
g3
sS'6c6b07'
p414
g3
sS'59d73d'
p415
g3
sS'2414bd'
p416
g3
sS'4dc9fe'
p417
g3
sS'bd90bc'
p418
g3
sS'cdfb03'
p419
g3
sS'ace17e'
p420
g3
sS'f52ad9'
p421
g3
sS'cbd51c'
p422
g3
sS'0ebf70'
p423
g3
sS'fedeac'
p424
g3
sS'2ec1ed'
p425
g3
sS'ceb419'
p426
g3
sS'6b24a1'
p427
g3
sS'85bb9b'
p428
g3
sS'dd9ce2'
p429
g3
sS'cf8c06'
p430
g3
sS'dc9c0a'
p431
g3
sS'4f080f'
p432
g3
sS'e42eea'
p433
g3
sS'8edac1'
p434
g3
sS'52076a'
p435
g3
sS'c12cdc'
p436
g3
sS'a4dd81'
p437
g3
sS'aa6c20'
p438
g3
sS'bfc873'
p439
g3
sS'22fd0f'
p440
g3
sS'dac3c6'
p441
g3
sS'9e567a'
p442
g3
sS'87a4ba'
p443
g3
sS'7bca0d'
p444
g3
sS'95e8f0'
p445
g3
sS'bcc9ea'
p446
g3
sS'fa7747'
p447
g3
sS'1e85de'
p448
g3
sS'0a4bd8'
p449
g3
sS'38f526'
p450
g3
sS'82cd3e'
p451
g3
sS'1cc1a7'
p452
g3
sS'696a4b'
p453
g3
sS'c0e0cd'
p454
g3
sS'397480'
p455
g3
sS'e6773f'
p456
g3
sS'6e651d'
p457
g3
sS'8ffc2f'
p458
g3
sS'c6aba9'
p459
g3
sS'cc548d'
p460
g3
sS'3c5c31'
p461
g3
sS'e96abc'
p462
g3
sS'ef5ae6'
p463
g3
sS'ccaeee'
p464
g3
sS'c91dbf'
p465
g3
sS'0ee4ab'
p466
g3
sS'9a8e7a'
p467
g3
sS'bda9ca'
p468
g3
sS'5a1e8c'
p469
g3
sS'da0f87'
p470
g3
sS'feb05b'
p471
g3
sS'0aa284'
p472
g3
sS'1fb895'
p473
g3
sS'bfcacc'
p474
g3
sS'0eb18b'
p475
g3
sS'79943e'
p476
g3
sS'dbd330'
p477
g3
sS'5f30c8'
p478
g3
sS'961b70'
p479
g3
sS'e041e1'
p480
g3
sS'b82de2'
p481
g3
sS'82c88d'
p482
g3
sS'11adcb'
p483
g3
sS'18dde1'
p484
g3
sS'bd337c'
p485
g3
sS'ce34ed'
p486
g3
sS'fc9ea7'
p487
g3
sS'8e8e4d'
p488
g3
sS'f381db'
p489
g3
sS'f3c82b'
p490
g3
sS'aacfcb'
p491
g3
sS'fdedcf'
p492
g3
sS'b2354f'
p493
g3
sS'1edaed'
p494
g3
sS'579338'
p495
g3
sS'5bccd4'
p496
g3
sS'985c9a'
p497
g3
sS'dcd3cd'
p498
g3
sS'e21a83'
p499
g3
sS'a3fc58'
p500
g3
sS'4003b6'
p501
g3
sS'8b824d'
p502
g3
s(dp503
S'10b65a6f'
p504
(dp505
sS'ebd36c8a'
p506
g505
sS'eff56fbc'
p507
g505
sS'1dddad2b'
p508
g505
sS'db899ebe'
p509
g505
sS'a25d6738'
p510
g505
sS'ac5ad6fc'
p511
g505
sS'e8f8dfbc'
p512
g505
sS'c3d5aa0f'
p513
g505
sS'5ccb6b83'
p514
g505
sS'092215e5'
p515
g505
sS'8ec8502f'
p516
g505
sS'1f7d7aca'
p517
g505
sS'78d2b8ad'
p518
g505
sS'a38c528a'
p519
g505
sS'dec33e4c'
p520
g505
sS'0d9c78c6'
p521
g505
sS'ae769d41'
p522
g505
sS'5c0fa1ed'
p523
g505
sS'ebaf8847'
p524
g505
sS'ec0fdbb6'
p525
g505
sS'b8b9af0b'
p526
g505
sS'dece5daf'
p527
g505
sS'fdf56eaa'
p528
g505
sS'6e37d6df'
p529
g505
sS'1bcccbdf'
p530
g505
sS'8abc5fbd'
p531
g505
sS'9f4f8ba5'
p532
g505
sS'3d603e0c'
p533
g505
sS'f4e839e5'
p534
g505
sS'e3f57307'
p535
g505
sS'8d47df14'
p536
g505
sS'd7db1db0'
p537
g505
sS'9cbc6f8d'
p538
g505
sS'91372dfc'
p539
g505
sS'4cc809f1'
p540
g505
sS'c5afca6a'
p541
g505
sS'4cfcc6a3'
p542
g505
sS'bc2c3a71'
p543
g505
sS'c8ba5a6c'
p544
g505
sS'4a0b80d9'
p545
g505
sS'd5e4f8b9'
p546
g505
sS'abb892a0'
p547
g505
sS'a059afe4'
p548
g505
sS'f10331bd'
p549
g505
sS'ef697fc9'
p550
g505
sS'21350c8a'
p551
g505
sS'8f8fedf1'
p552
g505
sS'bc92575e'
p553
g505
sS'41ada26c'
p554
g505
sS'4b1cd5cf'
p555
g505
sS'fdeb0d4d'
p556
g505
sS'fc377ca6'
p557
g505
sS'8cde41ea'
p558
g505
sS'5ad2b0cd'
p559
g505
sS'e57c4df6'
p560
g505
sS'b3f98dfa'
p561
g505
sS'fa3c6a0b'
p562
g505
sS'6bdb2bba'
p563
g505
sS'0e0cdc3b'
p564
g505
sS'80dffc13'
p565
g505
sS'e047d9ee'
p566
g505
sS'21355cae'
p567
g505
sS'e1cc239e'
p568
g505
sS'340fbdd9'
p569
g505
sS'ed6cc4da'
p570
g505
sS'83e3cef2'
p571
g505
sS'77bdd3ba'
p572
g505
sS'bf2c36bd'
p573
g505
sS'4ca8bdaa'
p574
g505
sS'f557e8a1'
p575
g505
sS'aec6addd'
p576
g505
sS'fea613d5'
p577
g505
sS'cecb5545'
p578
g505
sS'ac4ae9aa'
p579
g505
sS'4ea2eaff'
p580
g505
sS'15f2d2da'
p581
g505
sS'6fea3b49'
p582
g505
sS'e7cc71cd'
p583
g505
sS'de3cc0f0'
p584
g505
sS'd33e6fbf'
p585
g505
sS'ae7b7140'
p586
g505
sS'b65d2504'
p587
g505
sS'ac4dedfd'
p588
g505
sS'cf7e28ee'
p589
g505
sS'8afaf4cb'
p590
g505
sS'd3f35474'
p591
g505
sS'516b2092'
p592
g505
sS'4d6e42ea'
p593
g505
sS'b7bf17dd'
p594
g505
sS'd2bdf95f'
p595
g505
sS'fb7db7ed'
p596
g505
sS'96fc6c5c'
p597
g505
sS'a2ac8b4d'
p598
g505
sS'fedaccae'
p599
g505
sS'eae1614d'
p600
g505
sS'bbadf5b6'
p601
g505
sS'59f4a4b7'
p602
g505
sS'a3c3c5cd'
p603
g505
sS'f4e213e5'
p604
g505
sS'f12beafe'
p605
g505
sS'ac0f376a'
p606
g505
sS'b9dbe4ff'
p607
g505
sS'abf1bc00'
p608
g505
sS'f393be4d'
p609
g505
sS'b6aa7cbb'
p610
g505
sS'e1de64e7'
p611
g505
sS'8f1c18dd'
p612
g505
sS'52d623d1'
p613
g505
sS'1fafdbac'
p614
g505
sS'724d9acd'
p615
g505
sS'fbb920ac'
p616
g505
sS'365b1b00'
p617
g505
sS'68d2b977'
p618
g505
sS'a9028e18'
p619
g505
sS'75d1fbe8'
p620
g505
sS'e6ebbfae'
p621
g505
sS'9e5b898a'
p622
g505
sS'cfedb4ba'
p623
g505
sS'e5312459'
p624
g505
sS'cb9c78ba'
p625
g505
sS'6220eb38'
p626
g505
sS'5f2237cd'
p627
g505
sS'6dfe60df'
p628
g505
sS'ffababc2'
p629
g505
sS'7675fa49'
p630
g505
sS'f81e4bce'
p631
g505
sS'8dcc2078'
p632
g505
sS'34d9bcfd'
p633
g505
sS'de387c1b'
p634
g505
sS'dd8ded5b'
p635
g505
sS'fa79de3a'
p636
g505
sS'5d12035c'
p637
g505
sS'daffb5f5'
p638
g505
sS'e28cbb8d'
p639
g505
sS'baa547ed'
p640
g505
sS'74688cf4'
p641
g505
sS'fbcafc46'
p642
g505
sS'e23edc96'
p643
g505
sS'b40fdff4'
p644
g505
sS'02ad62a3'
p645
g505
sS'f81b71fe'
p646
g505
sS'91da8988'
p647
g505
sS'cdaecefa'
p648
g505
sS'b496d57c'
p649
g505
sS'09d8c7f7'
p650
g505
sS'90dc44ad'
p651
g505
sS'bce79daa'
p652
g505
sS'993e3064'
p653
g505
sS'fa709509'
p654
g505
sS'aa692c8d'
p655
g505
sS'725cc6cc'
p656
g505
sS'da9d2dba'
p657
g505
sS'0f9daaa5'
p658
g505
sS'508ff684'
p659
g505
sS'c4b0fa92'
p660
g505
sS'90a9c0be'
p661
g505
sS'5984e8c4'
p662
g505
sS'd81ff398'
p663
g505
sS'4b12d5f0'
p664
g505
sS'f825f1d8'
p665
g505
sS'088cad43'
p666
g505
sS'905a7bce'
p667
g505
sS'9daad94c'
p668
g505
sS'cfaebd1e'
p669
g505
sS'9cbef8cf'
p670
g505
sS'9e9d224f'
p671
g505
sS'adcf3cf4'
p672
g505
sS'c4cc8beb'
p673
g505
sS'e32e94bc'
p674
g505
sS'4dc5e56b'
p675
g505
sS'bfac0265'
p676
g505
sS'ec4a78ce'
p677
g505
sS'b8fa3bcc'
p678
g505
sS'efb3d1e4'
p679
g505
sS'1a3d636b'
p680
g505
sS'1ad5232c'
p681
g505
sS'fb16adb8'
p682
g505
sS'ed3c3a2d'
p683
g505
sS'bdb95bdd'
p684
g505
sS'2dfcb08d'
p685
g505
sS'8dd2e5bd'
p686
g505
sS'6dc97b1b'
p687
g505
sS'4a53a82b'
p688
g505
sS'4d5afbec'
p689
g505
sS'a0326b3b'
p690
g505
sS'fe0ae562'
p691
g505
sS'241c139f'
p692
g505
sS'686c5434'
p693
g505
sS'1fc8a18f'
p694
g505
sS'297cb1b3'
p695
g505
sS'fc11aeda'
p696
g505
sS'cfde3d91'
p697
g505
sS'e7de7639'
p698
g505
sS'3bc84946'
p699
g505
sS'7dd97dff'
p700
g505
sS'cedb2de1'
p701
g505
sS'b5b7f529'
p702
g505
sS'bfeba6ce'
p703
g505
sS'13c8b8de'
p704
g505
sS'92cc4bbe'
p705
g505
sS'3ada4cf0'
p706
g505
sS'1edec58f'
p707
g505
sS'ebb6ddba'
p708
g505
sS'4fabaca9'
p709
g505
sS'd4e3faf9'
p710
g505
sS'a44acb83'
p711
g505
sS'ff1d8e1c'
p712
g505
sS'cecc59ad'
p713
g505
sS'33d9d56a'
p714
g505
sS'c2646ec9'
p715
g505
sS'e1efb62b'
p716
g505
sS'dbc4c9ed'
p717
g505
sS'ff9cd0aa'
p718
g505
sS'de281e7e'
p719
g505
sS'3cefdfcb'
p720
g505
sS'ed8aeb33'
p721
g505
sS'8b5f2ff8'
p722
g505
sS'8abdb0c6'
p723
g505
sS'ac6d6a87'
p724
g505
sS'8ddbe7b1'
p725
g505
sS'd3d59bbf'
p726
g505
sS'c524b1af'
p727
g505
sS'ca7ebb9c'
p728
g505
sS'097fdedd'
p729
g505
sS'b23ca4b2'
p730
g505
sS'e6bed9f5'
p731
g505
sS'aedee759'
p732
g505
sS'9ae79deb'
p733
g505
sS'7e135b53'
p734
g505
sS'c4096eee'
p735
g505
sS'ae9c0e44'
p736
g505
sS'a80fc65c'
p737
g505
sS'cffc2c3a'
p738
g505
sS'211cdcb3'
p739
g505
sS'1f31c5af'
p740
g505
sS'90de422e'
p741
g505
sS'79acb350'
p742
g505
sS'9ddc01fd'
p743
g505
sS'dca8a159'
p744
g505
sS'efda1b53'
p745
g505
sS'77a9dab4'
p746
g505
sS'1abdff0d'
p747
g505
sS'f94fca5c'
p748
g505
sS'6dbf1ab4'
p749
g505
sS'376defbd'
p750
g505
sS'4aef2d4f'
p751
g505
sS'67f8e5a5'
p752
g505
sS'11dab7a1'
p753
g505
sS'9830bd63'
p754
g505
sS'6cedccfe'
p755
g505
sS'b10b16f5'
p756
g505
sS'f0cfd6dc'
p757
g505
sS'3310bf69'
p758
g505
sS'f9b832be'
p759
g505
sS'fc72c869'
p760
g505
sS'26eda11d'
p761
g505
sS'a47f8de0'
p762
g505
sS'36117192'
p763
g505
sS'bf7e0c3d'
p764
g505
sS'02f95b56'
p765
g505
sS'919d47cd'
p766
g505
sS'b76366eb'
p767
g505
sS'e86aa8af'
p768
g505
sS'fee04dee'
p769
g505
sS'82a9abdd'
p770
g505
sS'eae1a4de'
p771
g505
sS'28c34cf7'
p772
g505
sS'ff878e1a'
p773
g505
sS'0f9cc2eb'
p774
g505
sS'6e16222e'
p775
g505
sS'97fd2f92'
p776
g505
sS'714efbfe'
p777
g505
sS'a2c2eb2b'
p778
g505
sS'cbb01d13'
p779
g505
sS'a50bf0b8'
p780
g505
sS'6aae5a41'
p781
g505
sS'fea7fce1'
p782
g505
sS'cb39c776'
p783
g505
sS'a82f4e8c'
p784
g505
sS'814bcfd8'
p785
g505
sS'aa3fa4c8'
p786
g505
sS'ef9d321f'
p787
g505
sS'b8e400f2'
p788
g505
sS'b3336e0b'
p789
g505
sS'ed50f0fe'
p790
g505
sS'70e8baac'
p791
g505
sS'cba25195'
p792
g505
sS'caa3a884'
p793
g505
sS'dbc1a51a'
p794
g505
sS'e9ecbc58'
p795
g505
sS'fe4dfa1e'
p796
g505
sS'b669a1b2'
p797
g505
sS'ba3cb14e'
p798
g505
sS'df7faedf'
p799
g505
sS'bdf79d4d'
p800
g505
sS'ab5ff81c'
p801
g505
sS'dceb6fc0'
p802
g505
sS'5ea032cf'
p803
g505
sS'747c97bf'
p804
g505
sS'07cdadab'
p805
g505
sS'acce4c2e'
p806
g505
sS'388f8f1b'
p807
g505
sS'8bdabce5'
p808
g505
sS'bfadbcec'
p809
g505
sS'68090236'
p810
g505
sS'c0dc1b54'
p811
g505
sS'767d87ec'
p812
g505
sS'c45ec7ba'
p813
g505
sS'eeab4f73'
p814
g505
sS'640fb72e'
p815
g505
sS'ae3c8f8a'
p816
g505
sS'1fffa1a1'
p817
g505
sS'ffe45fbb'
p818
g505
sS'eedf612b'
p819
g505
sS'a4f5fdc3'
p820
g505
sS'c27e185d'
p821
g505
sS'2c8e5d29'
p822
g505
sS'bd7ace9d'
p823
g505
sS'e3e91fbf'
p824
g505
sS'453ee288'
p825
g505
sS'b8f72bb4'
p826
g505
sS'cf0f5ad1'
p827
g505
sS'35e0e19b'
p828
g505
sS'7df36633'
p829
g505
sS'5be0f01c'
p830
g505
sS'2efdda0a'
p831
g505
sS'aa7fe3ba'
p832
g505
sS'54e560da'
p833
g505
sS'ed2bb88f'
p834
g505
sS'aaa8bd1d'
p835
g505
sS'a288e228'
p836
g505
sS'eb548cc0'
p837
g505
sS'4c3c0dac'
p838
g505
sS'67a8cb60'
p839
g505
sS'be8e11a1'
p840
g505
sS'21edaf0f'
p841
g505
sS'4eed0caa'
p842
g505
sS'75d1791a'
p843
g505
sS'370633fe'
p844
g505
sS'd1baf2fe'
p845
g505
sS'ca4fcafb'
p846
g505
sS'bddfff71'
p847
g505
sS'c4bcfabd'
p848
g505
sS'7bdeb1d6'
p849
g505
sS'dcca2a5e'
p850
g505
sS'387f4faf'
p851
g505
sS'be5000bb'
p852
g505
sS'ec90a0b8'
p853
g505
sS'cfae8c5b'
p854
g505
sS'a2de8dcc'
p855
g505
sS'f2915bd6'
p856
g505
sS'df3e2818'
p857
g505
sS'aba7b9cb'
p858
g505
sS'fb783562'
p859
g505
sS'ceff1890'
p860
g505
sS'97b2befd'
p861
g505
sS'73ad23a5'
p862
g505
sS'9ff423a2'
p863
g505
sS'6ecd2034'
p864
g505
sS'5fb7ca4f'
p865
g505
sS'ff8ae7bb'
p866
g505
sS'cadbb77e'
p867
g505
sS'4a75c0a3'
p868
g505
sS'fadfb0ef'
p869
g505
sS'f0da5b0a'
p870
g505
sS'771febae'
p871
g505
sS'b9b1c15f'
p872
g505
sS'7ac2ce6a'
p873
g505
sS'72e1bbc5'
p874
g505
sS'0b6040f0'
p875
g505
sS'63fbc2cc'
p876
g505
sS'afdf7a6b'
p877
g505
sS'84ed0ab5'
p878
g505
sS'9400d3c2'
p879
g505
sS'6a8e530d'
p880
g505
sS'6fcc4a3a'
p881
g505
sS'ebeca752'
p882
g505
sS'4531a534'
p883
g505
sS'e37bd3f5'
p884
g505
sS'0482eecf'
p885
g505
sS'c86ae2dc'
p886
g505
sS'15db6e1e'
p887
g505
sS'7724132d'
p888
g505
sS'fbbe9ad8'
p889
g505
sS'1faa79cd'
p890
g505
sS'680cd2a7'
p891
g505
sS'9e9ecd13'
p892
g505
sS'8a91db69'
p893
g505
sS'afd8dfe4'
p894
g505
sS'864ecb0a'
p895
g505
sS'ef415ed4'
p896
g505
sS'e6aed42f'
p897
g505
sS'd78ace03'
p898
g505
sS'af86893d'
p899
g505
sS'adacab39'
p900
g505
sS'b884faa7'
p901
g505
sS'602dfe0e'
p902
g505
sS'9f1f9d3b'
p903
g505
sS'5af57a2d'
p904
g505
sS'466deeee'
p905
g505
sS'fa5e4c37'
p906
g505
sS'0fb9b248'
p907
g505
sS'9e6ae364'
p908
g505
sS'1152c610'
p909
g505
sS'39ae04e6'
p910
g505
sS'dead0259'
p911
g505
sS'b89ab6de'
p912
g505
sS'949fe9ce'
p913
g505
sS'a2f0a939'
p914
g505
sS'04eeffea'
p915
g505
sS'5edb0bd6'
p916
g505
sS'19daadd2'
p917
g505
sS'f4cdc14e'
p918
g505
sS'3516bbfc'
p919
g505
sS'2dff5853'
p920
g505
sS'7d58c6bd'
p921
g505
sS'd8dbbf2f'
p922
g505
sS'ddca7be1'
p923
g505
sS'ecdddaae'
p924
g505
sS'bd3bb568'
p925
g505
sS'aab390cf'
p926
g505
sS'7f473cee'
p927
g505
sS'3712a290'
p928
g505
sS'ac97cdcf'
p929
g505
sS'6fb2cb5d'
p930
g505
sS'dbdc7e6f'
p931
g505
sS'c8aebc78'
p932
g505
sS'c2b7ceeb'
p933
g505
sS'9d2fecad'
p934
g505
sS'5cfbe30d'
p935
g505
sS'12eadefc'
p936
g505
sS'efb00e5a'
p937
g505
sS'c2c0b18f'
p938
g505
sS'cf77ea8c'
p939
g505
sS'1d73becf'
p940
g505
sS'ddf30f0d'
p941
g505
sS'36da1ffd'
p942
g505
sS'ebcbad14'
p943
g505
sS'6d43b7a6'
p944
g505
sS'fee36aee'
p945
g505
sS'1bbd2aff'
p946
g505
sS'55fe9e97'
p947
g505
sS'bb9ae41b'
p948
g505
sS'ef64d8e9'
p949
g505
sS'cdee72ee'
p950
g505
sS'27ebf063'
p951
g505
sS'63adcea9'
p952
g505
sS'f0069953'
p953
g505
sS'eb5f393d'
p954
g505
sS'2d5eb98d'
p955
g505
sS'03de1bcf'
p956
g505
sS'bc7dbc43'
p957
g505
sS'f0a33ede'
p958
g505
sS'b9643972'
p959
g505
sS'f3c1f939'
p960
g505
sS'debdcf7b'
p961
g505
sS'3eab6616'
p962
g505
sS'fc9b470a'
p963
g505
sS'b868a5f9'
p964
g505
sS'93ddd0db'
p965
g505
sS'abb2dfe1'
p966
g505
sS'9f00d628'
p967
g505
sS'cb55e6b9'
p968
g505
sS'6dc4ad5d'
p969
g505
sS'cdb54db9'
p970
g505
sS'08cbd84d'
p971
g505
sS'f3caed19'
p972
g505
sS'06c1baa6'
p973
g505
sS'e9e5b6fe'
p974
g505
sS'a38d209e'
p975
g505
sS'b50f4d3e'
p976
g505
sS'2aed13fd'
p977
g505
sS'99ebc2dc'
p978
g505
sS'702dfa7e'
p979
g505
sS'dfb5a6c8'
p980
g505
sS'a217b115'
p981
g505
sS'bac09196'
p982
g505
sS'b0eed2a5'
p983
g505
sS'7d4f1639'
p984
g505
sS'dc7fc0b4'
p985
g505
sS'8df9c2f2'
p986
g505
sS'afc47f7f'
p987
g505
sS'c0f3bcdd'
p988
g505
sS'6f8561cb'
p989
g505
sS'a5b99ffa'
p990
g505
sS'af55c858'
p991
g505
sS'30dd2b6a'
p992
g505
sS'87be1aaa'
p993
g505
sS'c6ed0965'
p994
g505
sS'e1fe93f2'
p995
g505
sS'29bcd0ae'
p996
g505
sS'3ba40ce3'
p997
g505
sS'3a9fe101'
p998
g505
sS'c46be15c'
p999
g505
sS'aeb3cd4b'
p1000
g505
sS'9cdc6fc0'
p1001
g505
sS'daadfc92'
p1002
g505
sS'8c087bbf'
p1003
g505
sS'cd8e02f7'
p1004
g505
sS'a8e43d96'
p1005
g505
sS'facdeb5d'
p1006
g505
sS'4edfbc4d'
p1007
g505
sS'edc2a0ab'
p1008
g505
sS'ee1a6a22'
p1009
g505
sS'628ddaf4'
p1010
g505
sS'af374c7a'
p1011
g505
sS'7716673b'
p1012
g505
sS'31ee58a5'
p1013
g505
sS'bbc01255'
p1014
g505
sS'ba0378b4'
p1015
g505
sS'4d6bc3ea'
p1016
g505
sS'5cedbb9c'
p1017
g505
sS'fbe39be1'
p1018
g505
sS'4c3c3ea8'
p1019
g505
sS'd51feedb'
p1020
g505
sS'3cb5ccf4'
p1021
g505
sS'e8f08aa1'
p1022
g505
sS'dba7c48d'
p1023
g505
sS'19924fe0'
p1024
g505
sS'2efc30a9'
p1025
g505
sS'fe16c07f'
p1026
g505
sS'7ccc1e68'
p1027
g505
sS'a6b9cbfd'
p1028
g505
sS'd0b581f8'
p1029
g505
sS'd2c42dec'
p1030
g505
sS'c70ca6ba'
p1031
g505
sS'cdaffc9f'
p1032
g505
sS'6d57b891'
p1033
g505
sS'f6ab8ed0'
p1034
g505
sS'cbed9f3f'
p1035
g505
sS'1dbefdbc'
p1036
g505
sS'fcaccfdb'
p1037
g505
sS'33f40dcd'
p1038
g505
sS'0efbed70'
p1039
g505
sS'ff097b82'
p1040
g505
sS'ee1abacf'
p1041
g505
sS'52edc0c1'
p1042
g505
sS'fc1ddd9c'
p1043
g505
sS'8ab0a6f2'
p1044
g505
sS'bb03ecf0'
p1045
g505
sS'3f3adac9'
p1046
g505
sS'a3bf1ffe'
p1047
g505
sS'ccd9ebfe'
p1048
g505
sS'b3ffcea6'
p1049
g505
sS'aeaafd9c'
p1050
g505
sS'cd4166ad'
p1051
g505
sS'bb207edf'
p1052
g505
sS'5a8504c7'
p1053
g505
sS'4dace4ee'
p1054
g505
sS'9aa60bbb'
p1055
g505
sS'0d5bc0cc'
p1056
g505
sS'acfbd92c'
p1057
g505
sS'45dcffa2'
p1058
g505
sS'eddfd513'
p1059
g505
sS'79edc7f0'
p1060
g505
sS'93e4fede'
p1061
g505
sS'bb2087ad'
p1062
g505
sS'd891e5ad'
p1063
g505
sS'e355fd4d'
p1064
g505
sS'6f22ef2b'
p1065
g505
sS'1dfd0fdb'
p1066
g505
sS'c4d2fb09'
p1067
g505
sS'b8d45c3c'
p1068
g505
sS'415effdd'
p1069
g505
sS'7cafea2f'
p1070
g505
sS'b9f7d780'
p1071
g505
sS'89916dbf'
p1072
g505
sS'bd03ca32'
p1073
g505
sS'eaccaeaf'
p1074
g505
sS'2bfec1e6'
p1075
g505
sS'1bb58f4c'
p1076
g505
sS'1d2c7a2a'
p1077
g505
sS'3103a946'
p1078
g505
sS'fa0acda5'
p1079
g505
sS'8be53cbf'
p1080
g505
sS'58cbc94e'
p1081
g505
sS'a3e2caef'
p1082
g505
sS'17deeb0e'
p1083
g505
sS'2f1a353e'
p1084
g505
sS'aeaff95d'
p1085
g505
sS'02ed8ce9'
p1086
g505
sS'29dec272'
p1087
g505
sS'feff8b27'
p1088
g505
sS'e1dcb837'
p1089
g505
sS'ca3dba66'
p1090
g505
sS'ad3bcf5c'
p1091
g505
sS'0c8dd30b'
p1092
g505
sS'5e1caaf1'
p1093
g505
sS'4f3adfe9'
p1094
g505
sS'0bc0ddab'
p1095
g505
sS'2ecfc62b'
p1096
g505
sS'dcd96057'
p1097
g505
sS'3c1b074e'
p1098
g505
sS'ec37c5fb'
p1099
g505
sS'3287ad4b'
p1100
g505
sS'cd3e2e0a'
p1101
g505
sS'18c93c9f'
p1102
g505
sS'aaebfa61'
p1103
g505
sS'801867fc'
p1104
g505
sS'b98e77d8'
p1105
g505
sS'ccd8bf98'
p1106
g505
sS'dfe5962a'
p1107
g505
sS'e4fff45f'
p1108
g505
sS'90335d75'
p1109
g505
sS'9bc2fd95'
p1110
g505
sS'47ba9aab'
p1111
g505
sS'b60c8b4b'
p1112
g505
sS'feffe06c'
p1113
g505
sS'fdbd46ca'
p1114
g505
sS'cbaeb7af'
p1115
g505
sS'd6d19bd7'
p1116
g505
sS'8d156eac'
p1117
g505
sS'bdb0c5b4'
p1118
g505
sS'6ead2e90'
p1119
g505
sS'b3dccdef'
p1120
g505
sS'beffaf12'
p1121
g505
sS'b7a00bfb'
p1122
g505
sS'35686fed'
p1123
g505
sS'9310beaa'
p1124
g505
sS'8e7b5f44'
p1125
g505
sS'07f3c6a6'
p1126
g505
sS'ec3ea7ad'
p1127
g505
sS'af9d43ef'
p1128
g505
sS'edfebcca'
p1129
g505
sS'2b92b227'
p1130
g505
sS'782b1a1a'
p1131
g505
sS'f9ecdb8b'
p1132
g505
sS'5a39f0bb'
p1133
g505
sS'e057a40c'
p1134
g505
sS'3b53f1f6'
p1135
g505
sS'51ebf57d'
p1136
g505
sS'e6a10b07'
p1137
g505
sS'e4dbacde'
p1138
g505
sS'483a9721'
p1139
g505
sS'd978d03a'
p1140
g505
sS'3cba9609'
p1141
g505
sS'ef8da7aa'
p1142
g505
sS'78ced29c'
p1143
g505
sS'19e78bd1'
p1144
g505
sS'c1edcfcc'
p1145
g505
sS'fbd440c8'
p1146
g505
sS'd891f9fd'
p1147
g505
sS'a4f0f3bb'
p1148
g505
sS'b386c8fe'
p1149
g505
sS'8e4d2fef'
p1150
g505
sS'fbc7e3df'
p1151
g505
sS'52f211bb'
p1152
g505
sS'ffeebd03'
p1153
g505
sS'7ec1bb2c'
p1154
g505
sS'5275af04'
p1155
g505
sS'84c97ccc'
p1156
g505
sS'cd054ece'
p1157
g505
sS'cf41abe5'
p1158
g505
sS'b02977e4'
p1159
g505
sS'd694db7c'
p1160
g505
sS'651e005e'
p1161
g505
sS'bdf2a71b'
p1162
g505
sS'69aac4f4'
p1163
g505
sS'332a2bf7'
p1164
g505
sS'951ddbf2'
p1165
g505
sS'edfc67e8'
p1166
g505
sS'ca76c58f'
p1167
g505
sS'fa8fccde'
p1168
g505
sS'0daeb225'
p1169
g505
sS'bab1889d'
p1170
g505
sS'8aa5c763'
p1171
g505
sS'2df3db5c'
p1172
g505
sS'd5defac4'
p1173
g505
sS'd097f6ea'
p1174
g505
sS'db8e74b0'
p1175
g505
sS'8bc195f7'
p1176
g505
sS'19c83def'
p1177
g505
sS'f3bcf788'
p1178
g505
sS'a653ebdf'
p1179
g505
sS'87658cc5'
p1180
g505
sS'2a2b5ec5'
p1181
g505
sS'3b4dce5a'
p1182
g505
sS'5dd689ae'
p1183
g505
sS'a3e2ecc3'
p1184
g505
sS'0afe02ac'
p1185
g505
sS'd6d4c793'
p1186
g505
sS'5ade88fc'
p1187
g505
sS'4791f18c'
p1188
g505
sS'343e4b45'
p1189
g505
sS'dd80cb39'
p1190
g505
sS'ed06dc98'
p1191
g505
sS'180eeb2b'
p1192
g505
sS'acd00007'
p1193
g505
sS'ad463ad7'
p1194
g505
sS'cc3fe0d9'
p1195
g505
sS'8cec24da'
p1196
g505
sS'5bd62f1b'
p1197
g505
sS'b0ced1cd'
p1198
g505
sS'7a7b7b17'
p1199
g505
sS'deefaa44'
p1200
g505
sS'acc796c3'
p1201
g505
sS'85efd43b'
p1202
g505
sS'e62c9c7a'
p1203
g505
sS'0f75b751'
p1204
g505
sS'2f3e55eb'
p1205
g505
sS'1bc1e23b'
p1206
g505
sS'f5794bae'
p1207
g505
sS'6b8eab7a'
p1208
g505
sS'92711eef'
p1209
g505
sS'6069eaeb'
p1210
g505
sS'6aaaadab'
p1211
g505
sS'88ea8ede'
p1212
g505
sS'0555f5df'
p1213
g505
sS'4285f9cf'
p1214
g505
sS'2bfc44b1'
p1215
g505
sS'944cffeb'
p1216
g505
sS'e8c1c5c7'
p1217
g505
sS'8e7a80e0'
p1218
g505
sS'5cfa1cfb'
p1219
g505
sS'ee583cfe'
p1220
g505
sS'f265e4aa'
p1221
g505
sS'c5fb0b5b'
p1222
g505
sS'71c3bf9c'
p1223
g505
sS'cd04157f'
p1224
g505
sS'c12f9cda'
p1225
g505
sS'be670dc4'
p1226
g505
sS'bdac1ce0'
p1227
g505
sS'97c1f697'
p1228
g505
sS'b4a2ff05'
p1229
g505
sS'01e36b06'
p1230
g505
sS'daf90d22'
p1231
g505
sS'02db431e'
p1232
g505
sS'de3f0f50'
p1233
g505
sS'caadfd1a'
p1234
g505
sS'd81a0f94'
p1235
g505
sS'ab9ca6a7'
p1236
g505
sS'4a0a42bf'
p1237
g505
sS'af9be3b1'
p1238
g505
sS'a1164d94'
p1239
g505
sS'37dbe56e'
p1240
g505
sS'bedc251b'
p1241
g505
sS'2c98ba63'
p1242
g505
sS'a0dde68b'
p1243
g505
sS'f69fcc84'
p1244
g505
sS'7a2f6f12'
p1245
g505
sS'edd15adc'
p1246
g505
sS'baa30f2f'
p1247
g505
sS'a81f721a'
p1248
g505
sS'bcfa558d'
p1249
g505
sS'a5a74ec3'
p1250
g505
sS'b7994070'
p1251
g505
sS'cafd0a36'
p1252
g505
sS'31dbd2e0'
p1253
g505
sS'2fe0cbed'
p1254
g505
sS'5bf3b6f6'
p1255
g505
sS'cdd3cb05'
p1256
g505
sS'b0e69ea0'
p1257
g505
sS'84e17ac1'
p1258
g505
sS'8fecd8d9'
p1259
g505
sS'e976a4ea'
p1260
g505
sS'3e71e54b'
p1261
g505
sS'fcaebbb3'
p1262
g505
sS'614948ab'
p1263
g505
sS'783f64c2'
p1264
g505
sS'f79eea63'
p1265
g505
sS'd4ceed09'
p1266
g505
sS'e9c92ffa'
p1267
g505
sS'8bf479ac'
p1268
g505
sS'b93d0480'
p1269
g505
sS'cbdad6be'
p1270
g505
sS'a8e7fdcd'
p1271
g505
sS'fd3cafb9'
p1272
g505
sS'd006841a'
p1273
g505
sS'fa7bfc84'
p1274
g505
sS'7a5ce67e'
p1275
g505
sS'9a25d453'
p1276
g505
sS'c1dfaae3'
p1277
g505
sS'd5cbdcdc'
p1278
g505
sS'bbb2e765'
p1279
g505
sS'4ebf6e39'
p1280
g505
sS'8b8d124d'
p1281
g505
sS'bafbe88b'
p1282
g505
sS'f49bcb69'
p1283
g505
sS'be9da1f6'
p1284
g505
sS'2b9e1f3b'
p1285
g505
sS'2de209ed'
p1286
g505
sS'58d7d5b9'
p1287
g505
sS'475dea96'
p1288
g505
sS'c3ac26cb'
p1289
g505
sS'0dd068ce'
p1290
g505
sS'd9b627ff'
p1291
g505
sS'a288af53'
p1292
g505
sS'8fa6e5d8'
p1293
g505
sS'aeee7c54'
p1294
g505
sS'518c5c7c'
p1295
g505
sS'44e7ac22'
p1296
g505
sS'6eadbbd6'
p1297
g505
sS'd201dd6f'
p1298
g505
sS'dede1c1c'
p1299
g505
sS'acdefe80'
p1300
g505
sS'fdb0abfb'
p1301
g505
sS'c896211e'
p1302
g505
sS'dc0ccac6'
p1303
g505
sS'b48e2c61'
p1304
g505
sS'ecaf58da'
p1305
g505
sS'd40ba6ee'
p1306
g505
sS'4a5c2c2f'
p1307
g505
sS'c4a2ccab'
p1308
g505
sS'd0f911da'
p1309
g505
sS'9684bcb1'
p1310
g505
sS'ccb4fbdf'
p1311
g505
sS'cb50646e'
p1312
g505
sS'fc5c0fdc'
p1313
g505
sS'ea353caa'
p1314
g505
sS'e240b9c7'
p1315
g505
sS'50a2a6aa'
p1316
g505
sS'efea8ca1'
p1317
g505
sS'b6a2f8fb'
p1318
g505
sS'80d9afcc'
p1319
g505
sS'becfdc8c'
p1320
g505
sS'fffd2d16'
p1321
g505
sS'2b51e8ec'
p1322
g505
sS'ff061d05'
p1323
g505
sS'b533d251'
p1324
g505
sS'447cd8bb'
p1325
g505
sS'1176e8e5'
p1326
g505
sS'aeee14ec'
p1327
g505
sS'16c096f3'
p1328
g505
sS'0a5dcb57'
p1329
g505
sS'90ca63ca'
p1330
g505
sS'a86ef0ea'
p1331
g505
sS'eca86ee8'
p1332
g505
sS'86dcfb5a'
p1333
g505
sS'ef4adbb8'
p1334
g505
sS'6d2826a4'
p1335
g505
sS'1e5ddea5'
p1336
g505
sS'28c8fa0e'
p1337
g505
sS'b01e9950'
p1338
g505
sS'53eed049'
p1339
g505
sS'c9db8732'
p1340
g505
sS'b95a4dd9'
p1341
g505
sS'c2bb3dd1'
p1342
g505
sS'9c8debeb'
p1343
g505
sS'c3a5bdeb'
p1344
g505
sS'2aeaa93f'
p1345
g505
sS'1a5e82a6'
p1346
g505
sS'cf4c2dce'
p1347
g505
sS'476ad08c'
p1348
g505
sS'8ac9a0df'
p1349
g505
sS'aca4c384'
p1350
g505
sS'ef6fbfa1'
p1351
g505
sS'9b5396e3'
p1352
g505
sS'd2e03f76'
p1353
g505
sS'dd8f6edb'
p1354
g505
sS'2bf1bf79'
p1355
g505
sS'78aa9ebf'
p1356
g505
sS'380afe6b'
p1357
g505
sS'b8cbec0e'
p1358
g505
sS'd88be7e4'
p1359
g505
sS'08c1a2e4'
p1360
g505
sS'eba1c3b8'
p1361
g505
sS'a57ae646'
p1362
g505
sS'd61d1f4d'
p1363
g505
sS'486cdd1c'
p1364
g505
sS'c59dee12'
p1365
g505
sS'ac7bde5b'
p1366
g505
sS'126d1d9d'
p1367
g505
sS'a2f1c48b'
p1368
g505
sS'b5da81bc'
p1369
g505
sS'3ae2fded'
p1370
g505
sS'02ed3ef2'
p1371
g505
sS'7aaf7c65'
p1372
g505
sS'da1cf416'
p1373
g505
sS'ddbc927e'
p1374
g505
sS'bce4fbfb'
p1375
g505
sS'97d2be4f'
p1376
g505
sS'0effcb44'
p1377
g505
sS'7acf8ada'
p1378
g505
sS'05d0825d'
p1379
g505
sS'ccfdfabc'
p1380
g505
sS'35112a9d'
p1381
g505
sS'd31ffb77'
p1382
g505
sS'b10b9be1'
p1383
g505
sS'cbb6a9ea'
p1384
g505
sS'c142adcd'
p1385
g505
sS'dd6ede90'
p1386
g505
sS'1ee6fbb7'
p1387
g505
sS'94fd5ebb'
p1388
g505
sS'bfda5acc'
p1389
g505
sS'eaf23a0c'
p1390
g505
sS'df324b9b'
p1391
g505
sS'cb7fbffa'
p1392
g505
sS'6be903c0'
p1393
g505
sS'66e0878c'
p1394
g505
sS'b0c75e9c'
p1395
g505
sS'3aceb67b'
p1396
g505
sS'b4cfbe5a'
p1397
g505
sS'20f8aebc'
p1398
g505
sS'66b1beeb'
p1399
g505
sS'fb721aac'
p1400
g505
sS'0bcdd149'
p1401
g505
sS'71eae4e9'
p1402
g505
sS'ffed77d4'
p1403
g505
sS'5b0c0c7f'
p1404
g505
sS'd88bdf6f'
p1405
g505
sS'831ffe0c'
p1406
g505
sS'b78d6df6'
p1407
g505
sS'e2fb0bfa'
p1408
g505
sS'eeaef4fa'
p1409
g505
sS'4fc76013'
p1410
g505
sS'07d9c6fe'
p1411
g505
sS'0354dda1'
p1412
g505
sS'c4e9f58a'
p1413
g505
sS'dca21e8d'
p1414
g505
sS'0e639cab'
p1415
g505
sS'3fc59efe'
p1416
g505
sS'be7f69b8'
p1417
g505
sS'd9695b0f'
p1418
g505
sS'aba3c65a'
p1419
g505
sS'f1ea9455'
p1420
g505
sS'18ae0cc7'
p1421
g505
sS'b0463e1a'
p1422
g505
sS'561ba7ec'
p1423
g505
sS'5051a50e'
p1424
g505
sS'1bfbe479'
p1425
g505
sS'07a99799'
p1426
g505
sS'd1e421ec'
p1427
g505
sS'4d23af11'
p1428
g505
sS'cfc57ce6'
p1429
g505
sS'ae1b04fb'
p1430
g505
sS'abab9a95'
p1431
g505
sS'd3d0f1bd'
p1432
g505
sS'15adde2b'
p1433
g505
sS'2f9df2d6'
p1434
g505
sS'4cc43d49'
p1435
g505
sS'b1e32ec9'
p1436
g505
sS'8cdbafc7'
p1437
g505
sS'0528d2bb'
p1438
g505
sS'4e1037ae'
p1439
g505
sS'dcf33c88'
p1440
g505
sS'bcd57e8b'
p1441
g505
sS'bdcff5ef'
p1442
g505
sS'aa218d66'
p1443
g505
sS'dbfa6be8'
p1444
g505
sS'b54bbbbd'
p1445
g505
sS'e2e1dce5'
p1446
g505
sS'0aeb6cbe'
p1447
g505
sS'cafdbe25'
p1448
g505
sS'd3d4ac38'
p1449
g505
sS'fd9c32ca'
p1450
g505
sS'6a45ea1d'
p1451
g505
sS'a3b3946d'
p1452
g505
sS'acc0025f'
p1453
g505
sS'738b3eca'
p1454
g505
sS'ec6b7567'
p1455
g505
sS'4e2dc60f'
p1456
g505
sS'd3bdefe0'
p1457
g505
sS'e553f095'
p1458
g505
sS'61afd12f'
p1459
g505
sS'e5cc33fe'
p1460
g505
sS'eb014aaf'
p1461
g505
sS'74bc2ff1'
p1462
g505
sS'd6ddded8'
p1463
g505
sS'd8ea9cb8'
p1464
g505
sS'deaecc71'
p1465
g505
sS'a0af4c8d'
p1466
g505
sS'7c5fff29'
p1467
g505
sS'67906ba4'
p1468
g505
sS'47ecf0bb'
p1469
g505
sS'5c9fc3bb'
p1470
g505
sS'fde14ce9'
p1471
g505
sS'9e25fbe5'
p1472
g505
sS'14090fe6'
p1473
g505
sS'03dc81cf'
p1474
g505
sS'dcaf7c3d'
p1475
g505
sS'bfae2d96'
p1476
g505
sS'dbdd3ffb'
p1477
g505
sS'd0c6f1b0'
p1478
g505
sS'f38bbbb4'
p1479
g505
sS'154efe3c'
p1480
g505
sS'a634d4fb'
p1481
g505
sS'a9c4241a'
p1482
g505
sS'bee0f8f0'
p1483
g505
sS'c530051e'
p1484
g505
sS'ef0bbae0'
p1485
g505
sS'695e86ad'
p1486
g505
sS'b2d2bdfc'
p1487
g505
sS'7bd2d99d'
p1488
g505
sS'8aae69fc'
p1489
g505
sS'c82b3073'
p1490
g505
sS'bda896a8'
p1491
g505
sS'4fdbab34'
p1492
g505
sS'f7bcb1e1'
p1493
g505
sS'ed5739ae'
p1494
g505
sS'12fa4b11'
p1495
g505
sS'e428ecad'
p1496
g505
sS'cbe4ebbd'
p1497
g505
sS'abb4e3e2'
p1498
g505
sS'2a3dbcd0'
p1499
g505
sS'82eece74'
p1500
g505
sS'ee44f3da'
p1501
g505
sS'fbebfd3c'
p1502
g505
sS'bee3a56e'
p1503
g505
sS'15476750'
p1504
g505
st.